; Function Attrs: mustprogress nofree nounwind willreturn memory(read, inaccessiblemem: none) uwtable
define dso_local noundef zeroext i1 @_ZNK7doctest16SubcaseSignatureltERKS0_(ptr noundef nonnull readonly align 8 captures(none) dereferenceable(36) %0, ptr noundef nonnull readonly align 8 captures(none) dereferenceable(36) %1) local_unnamed_addr #21 align 2 {
  %3 = getelementptr inbounds nuw i8, ptr %0, i64 32
  %4 = load i32, ptr %3, align 8, !tbaa !81
  %5 = getelementptr inbounds nuw i8, ptr %1, i64 32
  %6 = load i32, ptr %5, align 8, !tbaa !81
  %.not = icmp eq i32 %4, %6
  br i1 %.not, label %9, label %7

7:                                                ; preds = %2
  %8 = icmp slt i32 %4, %6
  br label %28

9:                                                ; preds = %2
  %10 = getelementptr inbounds nuw i8, ptr %0, i64 24
  %11 = load ptr, ptr %10, align 8, !tbaa !83
  %12 = getelementptr inbounds nuw i8, ptr %1, i64 24
  %13 = load ptr, ptr %12, align 8, !tbaa !83
  %14 = tail call i32 @strcmp(ptr noundef nonnull dereferenceable(1) %11, ptr noundef nonnull dereferenceable(1) %13) #52
  %.not10 = icmp eq i32 %14, 0
  br i1 %.not10, label %17, label %15

15:                                               ; preds = %9
  %16 = icmp slt i32 %14, 0
  br label %28

17:                                               ; preds = %9
  %18 = getelementptr inbounds nuw i8, ptr %1, i64 23
  %19 = load i8, ptr %18, align 1, !tbaa !38
  %20 = load ptr, ptr %1, align 8
  %21 = icmp slt i8 %19, 0
  %.0.i.i.i = select i1 %21, ptr %20, ptr %1
  %22 = getelementptr inbounds nuw i8, ptr %0, i64 23
  %23 = load i8, ptr %22, align 1, !tbaa !38
  %24 = load ptr, ptr %0, align 8
  %25 = icmp slt i8 %23, 0
  %.0.i.i.i.i = select i1 %25, ptr %24, ptr %0
  %26 = tail call i32 @strcmp(ptr noundef nonnull dereferenceable(1) %.0.i.i.i.i, ptr noundef nonnull readonly dereferenceable(1) %.0.i.i.i) #52
  %27 = icmp slt i32 %26, 0
  br label %28

28:                                               ; preds = %17, %15, %7
  %.0 = phi i1 [ %8, %7 ], [ %16, %15 ], [ %27, %17 ]
  ret i1 %.0
}